; Function Attrs: nofree nounwind sspstrong uwtable
define dso_local %struct.student* @creat() local_unnamed_addr #0 {
  %1 = alloca i32, align 4
  %2 = bitcast i32* %1 to i8*
  call void @llvm.lifetime.start.p0i8(i64 4, i8* nonnull %2) #4
  %3 = call i32 (i8*, ...) @__isoc99_scanf(i8* getelementptr inbounds ([3 x i8], [3 x i8]* @.str, i64 0, i64 0), i32* nonnull %1)
  store i32 1, i32* @n, align 4, !tbaa !5
  %4 = call noalias align 16 dereferenceable_or_null(100) i8* @malloc(i64 100) #4
  %5 = bitcast i8* %4 to %struct.student*
  %6 = getelementptr inbounds %struct.student, %struct.student* %5, i64 0, i32 0, i64 0
  %7 = getelementptr inbounds %struct.student, %struct.student* %5, i64 0, i32 1
  %8 = getelementptr inbounds %struct.student, %struct.student* %5, i64 0, i32 2
  %9 = getelementptr inbounds %struct.student, %struct.student* %5, i64 0, i32 3
  %10 = getelementptr inbounds %struct.student, %struct.student* %5, i64 0, i32 4
  %11 = getelementptr inbounds %struct.student, %struct.student* %5, i64 0, i32 5
  %12 = call i32 (i8*, ...) @__isoc99_scanf(i8* getelementptr inbounds ([18 x i8], [18 x i8]* @.str.1, i64 0, i64 0), i8* %6, i32* nonnull %7, i32* nonnull %8, i8* nonnull %9, i8* nonnull %10, i32* nonnull %11)
  %13 = load i32, i32* @n, align 4, !tbaa !5
  br label %14

14:                                               ; preds = %32, %0
  %15 = phi i32 [ %36, %32 ], [ %13, %0 ]
  %16 = phi %struct.student* [ %34, %32 ], [ null, %0 ]
  %17 = phi %struct.student* [ %35, %32 ], [ %5, %0 ]
  %18 = icmp eq i32 %15, 1
  br i1 %18, label %32, label %19

19:                                               ; preds = %14
  %20 = call noalias align 16 dereferenceable_or_null(100) i8* @malloc(i64 100) #4
  %21 = bitcast i8* %20 to %struct.student*
  %22 = getelementptr inbounds %struct.student, %struct.student* %21, i64 0, i32 0, i64 0
  %23 = getelementptr inbounds %struct.student, %struct.student* %21, i64 0, i32 1
  %24 = getelementptr inbounds %struct.student, %struct.student* %21, i64 0, i32 2
  %25 = getelementptr inbounds %struct.student, %struct.student* %21, i64 0, i32 3
  %26 = getelementptr inbounds %struct.student, %struct.student* %21, i64 0, i32 4
  %27 = getelementptr inbounds %struct.student, %struct.student* %21, i64 0, i32 5
  %28 = call i32 (i8*, ...) @__isoc99_scanf(i8* getelementptr inbounds ([18 x i8], [18 x i8]* @.str.1, i64 0, i64 0), i8* %22, i32* nonnull %23, i32* nonnull %24, i8* nonnull %25, i8* nonnull %26, i32* nonnull %27)
  %29 = getelementptr inbounds %struct.student, %struct.student* %17, i64 0, i32 6
  %30 = bitcast %struct.student** %29 to i8**
  store i8* %20, i8** %30, align 8, !tbaa !9
  %31 = load i32, i32* @n, align 4, !tbaa !5
  br label %32

32:                                               ; preds = %14, %19
  %33 = phi i32 [ %31, %19 ], [ 1, %14 ]
  %34 = phi %struct.student* [ %16, %19 ], [ %17, %14 ]
  %35 = phi %struct.student* [ %21, %19 ], [ %17, %14 ]
  %36 = add nsw i32 %33, 1
  store i32 %36, i32* @n, align 4, !tbaa !5
  %37 = load i32, i32* %1, align 4, !tbaa !5
  %38 = icmp slt i32 %33, %37
  br i1 %38, label %14, label %39, !llvm.loop !12

39:                                               ; preds = %32
  %40 = getelementptr inbounds %struct.student, %struct.student* %35, i64 0, i32 6
  store %struct.student* null, %struct.student** %40, align 8, !tbaa !9
  call void @llvm.lifetime.end.p0i8(i64 4, i8* nonnull %2) #4
  ret %struct.student* %34
}

; Function Attrs: nofree nounwind sspstrong uwtable
define dso_local void @main() local_unnamed_addr #0 {
  %1 = tail call %struct.student* @creat()
  %2 = icmp eq %struct.student* %1, null
  br i1 %2, label %96, label %4

3:                                                ; preds = %42
  br i1 %2, label %96, label %50

4:                                                ; preds = %0, %42
  %5 = phi i32 [ %46, %42 ], [ 0, %0 ]
  %6 = phi i32 [ %45, %42 ], [ 0, %0 ]
  %7 = phi %struct.student* [ %48, %42 ], [ %1, %0 ]
  %8 = getelementptr inbounds %struct.student, %struct.student* %7, i64 0, i32 1
  %9 = load i32, i32* %8, align 4, !tbaa !14
  %10 = icmp sgt i32 %9, 80
  br i1 %10, label %11, label %31

11:                                               ; preds = %4
  %12 = getelementptr inbounds %struct.student, %struct.student* %7, i64 0, i32 5
  %13 = load i32, i32* %12, align 8, !tbaa !15
  %14 = icmp sgt i32 %13, 0
  %15 = select i1 %14, i32 8000, i32 0
  %16 = icmp sgt i32 %9, 85
  br i1 %16, label %17, label %31

17:                                               ; preds = %11
  %18 = getelementptr inbounds %struct.student, %struct.student* %7, i64 0, i32 2
  %19 = load i32, i32* %18, align 8, !tbaa !16
  %20 = icmp sgt i32 %19, 80
  %21 = add nuw nsw i32 %15, 4000
  %22 = select i1 %20, i32 %21, i32 %15
  %23 = icmp sgt i32 %9, 90
  %24 = add nuw nsw i32 %22, 2000
  %25 = select i1 %23, i32 %24, i32 %22
  %26 = getelementptr inbounds %struct.student, %struct.student* %7, i64 0, i32 4
  %27 = load i8, i8* %26, align 1, !tbaa !17
  %28 = icmp eq i8 %27, 89
  %29 = add nuw nsw i32 %25, 1000
  %30 = select i1 %28, i32 %29, i32 %25
  br label %31

31:                                               ; preds = %4, %11, %17
  %32 = phi i32 [ %30, %17 ], [ %15, %11 ], [ 0, %4 ]
  %33 = getelementptr inbounds %struct.student, %struct.student* %7, i64 0, i32 2
  %34 = load i32, i32* %33, align 8, !tbaa !16
  %35 = icmp sgt i32 %34, 80
  br i1 %35, label %36, label %42

36:                                               ; preds = %31
  %37 = getelementptr inbounds %struct.student, %struct.student* %7, i64 0, i32 3
  %38 = load i8, i8* %37, align 4, !tbaa !18
  %39 = icmp eq i8 %38, 89
  %40 = add nuw nsw i32 %32, 850
  %41 = select i1 %39, i32 %40, i32 %32
  br label %42

42:                                               ; preds = %36, %31
  %43 = phi i32 [ %32, %31 ], [ %41, %36 ]
  %44 = icmp sgt i32 %43, %6
  %45 = select i1 %44, i32 %43, i32 %6
  %46 = add nsw i32 %43, %5
  %47 = getelementptr inbounds %struct.student, %struct.student* %7, i64 0, i32 6
  %48 = load %struct.student*, %struct.student** %47, align 8, !tbaa !9
  %49 = icmp eq %struct.student* %48, null
  br i1 %49, label %3, label %4, !llvm.loop !19

50:                                               ; preds = %3, %92
  %51 = phi %struct.student* [ %94, %92 ], [ %1, %3 ]
  %52 = getelementptr inbounds %struct.student, %struct.student* %51, i64 0, i32 1
  %53 = load i32, i32* %52, align 4, !tbaa !14
  %54 = icmp sgt i32 %53, 80
  br i1 %54, label %55, label %75

55:                                               ; preds = %50
  %56 = getelementptr inbounds %struct.student, %struct.student* %51, i64 0, i32 5
  %57 = load i32, i32* %56, align 8, !tbaa !15
  %58 = icmp sgt i32 %57, 0
  %59 = select i1 %58, i32 8000, i32 0
  %60 = icmp sgt i32 %53, 85
  br i1 %60, label %61, label %75

61:                                               ; preds = %55
  %62 = getelementptr inbounds %struct.student, %struct.student* %51, i64 0, i32 2
  %63 = load i32, i32* %62, align 8, !tbaa !16
  %64 = icmp sgt i32 %63, 80
  %65 = add nuw nsw i32 %59, 4000
  %66 = select i1 %64, i32 %65, i32 %59
  %67 = icmp sgt i32 %53, 90
  %68 = add nuw nsw i32 %66, 2000
  %69 = select i1 %67, i32 %68, i32 %66
  %70 = getelementptr inbounds %struct.student, %struct.student* %51, i64 0, i32 4
  %71 = load i8, i8* %70, align 1, !tbaa !17
  %72 = icmp eq i8 %71, 89
  %73 = add nuw nsw i32 %69, 1000
  %74 = select i1 %72, i32 %73, i32 %69
  br label %75

75:                                               ; preds = %50, %55, %61
  %76 = phi i32 [ %74, %61 ], [ %59, %55 ], [ 0, %50 ]
  %77 = getelementptr inbounds %struct.student, %struct.student* %51, i64 0, i32 2
  %78 = load i32, i32* %77, align 8, !tbaa !16
  %79 = icmp sgt i32 %78, 80
  br i1 %79, label %80, label %86

80:                                               ; preds = %75
  %81 = getelementptr inbounds %struct.student, %struct.student* %51, i64 0, i32 3
  %82 = load i8, i8* %81, align 4, !tbaa !18
  %83 = icmp eq i8 %82, 89
  %84 = add nuw nsw i32 %76, 850
  %85 = select i1 %83, i32 %84, i32 %76
  br label %86

86:                                               ; preds = %80, %75
  %87 = phi i32 [ %76, %75 ], [ %85, %80 ]
  %88 = icmp eq i32 %87, %45
  br i1 %88, label %89, label %92

89:                                               ; preds = %86
  %90 = getelementptr inbounds %struct.student, %struct.student* %51, i64 0, i32 0, i64 0
  %91 = tail call i32 (i8*, ...) @printf(i8* nonnull dereferenceable(1) getelementptr inbounds ([7 x i8], [7 x i8]* @.str.2, i64 0, i64 0), i8* nonnull %90, i32 %45)
  br label %96

92:                                               ; preds = %86
  %93 = getelementptr inbounds %struct.student, %struct.student* %51, i64 0, i32 6
  %94 = load %struct.student*, %struct.student** %93, align 8, !tbaa !9
  %95 = icmp eq %struct.student* %94, null
  br i1 %95, label %96, label %50, !llvm.loop !20

96:                                               ; preds = %92, %0, %3, %89
  %97 = phi i32 [ %46, %3 ], [ %46, %89 ], [ 0, %0 ], [ %46, %92 ]
  %98 = tail call i32 (i8*, ...) @printf(i8* nonnull dereferenceable(1) getelementptr inbounds ([3 x i8], [3 x i8]* @.str, i64 0, i64 0), i32 %97)
  ret void
}